target datalayout = "e-m:e-p270:32:32-p271:32:32-p272:64:64-i64:64-i128:128-f80:128-n8:16:32:64-S128"
target triple = "x86_64-pc-linux-gnu"

%struct.HeapTupleData = type { i32, %struct.ItemPointerData, i32, ptr }
%struct.ItemPointerData = type { %struct.BlockIdData, i16 }
%struct.BlockIdData = type { i16, i16 }
%struct.RelationData = type { %struct.RelFileLocator, ptr, i32, i32, i8, i8, i8, i8, i8, i32, i32, i32, i32, ptr, ptr, i32, %struct.LockInfoData, ptr, ptr, ptr, ptr, ptr, i8, ptr, ptr, ptr, ptr, ptr, ptr, i32, ptr, i8, ptr, ptr, i32, i8, i32, ptr, i8, ptr, ptr, ptr, ptr, ptr, ptr, ptr, i32, ptr, ptr, ptr, ptr, ptr, ptr, ptr, ptr, ptr, ptr, ptr, ptr, ptr, ptr, ptr, ptr, ptr, ptr, ptr, i32, i8, ptr }
%struct.RelFileLocator = type { i32, i32, i32 }
%struct.LockInfoData = type { %struct.LockRelId }
%struct.LockRelId = type { i32, i32 }
%struct.FormData_pg_class = type { i32, %struct.nameData, i32, i32, i32, i32, i32, i32, i32, i32, float, i32, i32, i8, i8, i8, i8, i16, i16, i8, i8, i8, i8, i8, i8, i8, i8, i32, i32, i32 }
%struct.nameData = type { [64 x i8] }
%struct.HeapTupleHeaderData = type { %union.anon.1, %struct.ItemPointerData, i16, i16, i8, [0 x i8] }
%union.anon.1 = type { %struct.HeapTupleFields }
%struct.HeapTupleFields = type { i32, i32, %union.anon.2 }
%union.anon.2 = type { i32 }

@.str.1 = private unnamed_addr constant [9 x i8] c"heapam.c\00", align 1
@ParallelWorkerNumber = external global i32, align 4
@.str.29 = private unnamed_addr constant [42 x i8] c"cannot insert tuples in a parallel worker\00", align 1
@__func__.heap_prepare_insert = private unnamed_addr constant [20 x i8] c"heap_prepare_insert\00", align 1

; Function Attrs: inlinehint nounwind uwtable
define internal zeroext i1 @HeapTupleHasExternal(ptr noundef %0) #3 {
  %2 = alloca ptr, align 8
  store ptr %0, ptr %2, align 8
  %3 = load ptr, ptr %2, align 8
  %4 = getelementptr inbounds nuw %struct.HeapTupleData, ptr %3, i32 0, i32 3
  %5 = load ptr, ptr %4, align 8
  %6 = getelementptr inbounds nuw %struct.HeapTupleHeaderData, ptr %5, i32 0, i32 3
  %7 = load i16, ptr %6, align 4
  %8 = zext i16 %7 to i32
  %9 = and i32 %8, 4
  %10 = icmp ne i32 %9, 0
  ret i1 %10
}

; Function Attrs: inlinehint nounwind uwtable
define internal void @HeapTupleHeaderSetXmax(ptr noundef %0, i32 noundef %1) #3 {
  %3 = alloca ptr, align 8
  %4 = alloca i32, align 4
  store ptr %0, ptr %3, align 8
  store i32 %1, ptr %4, align 4
  %5 = load i32, ptr %4, align 4
  %6 = load ptr, ptr %3, align 8
  %7 = getelementptr inbounds nuw %struct.HeapTupleHeaderData, ptr %6, i32 0, i32 0
  %8 = getelementptr inbounds nuw %struct.HeapTupleFields, ptr %7, i32 0, i32 1
  store i32 %5, ptr %8, align 4
  ret void
}

; Function Attrs: inlinehint nounwind uwtable
define internal void @HeapTupleHeaderSetCmin(ptr noundef %0, i32 noundef %1) #3 {
  %3 = alloca ptr, align 8
  %4 = alloca i32, align 4
  store ptr %0, ptr %3, align 8
  store i32 %1, ptr %4, align 4
  %5 = load i32, ptr %4, align 4
  %6 = load ptr, ptr %3, align 8
  %7 = getelementptr inbounds nuw %struct.HeapTupleHeaderData, ptr %6, i32 0, i32 0
  %8 = getelementptr inbounds nuw %struct.HeapTupleFields, ptr %7, i32 0, i32 2
  store i32 %5, ptr %8, align 4
  %9 = load ptr, ptr %3, align 8
  %10 = getelementptr inbounds nuw %struct.HeapTupleHeaderData, ptr %9, i32 0, i32 3
  %11 = load i16, ptr %10, align 4
  %12 = zext i16 %11 to i32
  %13 = and i32 %12, -33
  %14 = trunc i32 %13 to i16
  store i16 %14, ptr %10, align 4
  ret void
}

; Function Attrs: inlinehint nounwind uwtable
define internal void @HeapTupleHeaderSetXminFrozen(ptr noundef %0) #3 {
  %2 = alloca ptr, align 8
  store ptr %0, ptr %2, align 8
  %3 = load ptr, ptr %2, align 8
  %4 = getelementptr inbounds nuw %struct.HeapTupleHeaderData, ptr %3, i32 0, i32 3
  %5 = load i16, ptr %4, align 4
  %6 = zext i16 %5 to i32
  %7 = or i32 %6, 768
  %8 = trunc i32 %7 to i16
  store i16 %8, ptr %4, align 4
  ret void
}

; Function Attrs: inlinehint nounwind uwtable
define internal void @HeapTupleHeaderSetXmin(ptr noundef %0, i32 noundef %1) #3 {
  %3 = alloca ptr, align 8
  %4 = alloca i32, align 4
  store ptr %0, ptr %3, align 8
  store i32 %1, ptr %4, align 4
  %5 = load i32, ptr %4, align 4
  %6 = load ptr, ptr %3, align 8
  %7 = getelementptr inbounds nuw %struct.HeapTupleHeaderData, ptr %6, i32 0, i32 0
  %8 = getelementptr inbounds nuw %struct.HeapTupleFields, ptr %7, i32 0, i32 0
  store i32 %5, ptr %8, align 4
  ret void
}

; Function Attrs: nounwind uwtable
define internal ptr @heap_prepare_insert(ptr noundef %0, ptr noundef %1, i32 noundef %2, i32 noundef %3, i32 noundef %4) #0 {
  %6 = alloca ptr, align 8
  %7 = alloca ptr, align 8
  %8 = alloca ptr, align 8
  %9 = alloca i32, align 4
  %10 = alloca i32, align 4
  %11 = alloca i32, align 4
  store ptr %0, ptr %7, align 8
  store ptr %1, ptr %8, align 8
  store i32 %2, ptr %9, align 4
  store i32 %3, ptr %10, align 4
  store i32 %4, ptr %11, align 4
  %12 = load i32, ptr @ParallelWorkerNumber, align 4
  %13 = icmp sge i32 %12, 0
  br i1 %13, label %14, label %25

14:                                               ; preds = %5
  br label %15

15:                                               ; preds = %14
  br i1 true, label %16, label %18

16:                                               ; preds = %15
  %17 = call zeroext i1 @errstart_cold(i32 noundef 21, ptr noundef null) #11
  br i1 %17, label %20, label %23

18:                                               ; preds = %15
  %19 = call zeroext i1 @errstart(i32 noundef 21, ptr noundef null)
  br i1 %19, label %20, label %23

20:                                               ; preds = %18, %16
  %21 = call i32 @errcode(i32 noundef 322)
  %22 = call i32 (ptr, ...) @errmsg(ptr noundef @.str.29)
  call void @errfinish(ptr noundef @.str.1, i32 noundef 2209, ptr noundef @__func__.heap_prepare_insert)
  br label %23

23:                                               ; preds = %20, %18, %16
  unreachable

24:                                               ; No predecessors!
  br label %25

25:                                               ; preds = %24, %5
  %26 = load ptr, ptr %8, align 8
  %27 = getelementptr inbounds nuw %struct.HeapTupleData, ptr %26, i32 0, i32 3
  %28 = load ptr, ptr %27, align 8
  %29 = getelementptr inbounds nuw %struct.HeapTupleHeaderData, ptr %28, i32 0, i32 3
  %30 = load i16, ptr %29, align 4
  %31 = zext i16 %30 to i32
  %32 = and i32 %31, -65521
  %33 = trunc i32 %32 to i16
  store i16 %33, ptr %29, align 4
  %34 = load ptr, ptr %8, align 8
  %35 = getelementptr inbounds nuw %struct.HeapTupleData, ptr %34, i32 0, i32 3
  %36 = load ptr, ptr %35, align 8
  %37 = getelementptr inbounds nuw %struct.HeapTupleHeaderData, ptr %36, i32 0, i32 2
  %38 = load i16, ptr %37, align 2
  %39 = zext i16 %38 to i32
  %40 = and i32 %39, -57345
  %41 = trunc i32 %40 to i16
  store i16 %41, ptr %37, align 2
  %42 = load ptr, ptr %8, align 8
  %43 = getelementptr inbounds nuw %struct.HeapTupleData, ptr %42, i32 0, i32 3
  %44 = load ptr, ptr %43, align 8
  %45 = getelementptr inbounds nuw %struct.HeapTupleHeaderData, ptr %44, i32 0, i32 3
  %46 = load i16, ptr %45, align 4
  %47 = zext i16 %46 to i32
  %48 = or i32 %47, 2048
  %49 = trunc i32 %48 to i16
  store i16 %49, ptr %45, align 4
  %50 = load ptr, ptr %8, align 8
  %51 = getelementptr inbounds nuw %struct.HeapTupleData, ptr %50, i32 0, i32 3
  %52 = load ptr, ptr %51, align 8
  %53 = load i32, ptr %9, align 4
  call void @HeapTupleHeaderSetXmin(ptr noundef %52, i32 noundef %53)
  %54 = load i32, ptr %11, align 4
  %55 = and i32 %54, 4
  %56 = icmp ne i32 %55, 0
  br i1 %56, label %57, label %61

57:                                               ; preds = %25
  %58 = load ptr, ptr %8, align 8
  %59 = getelementptr inbounds nuw %struct.HeapTupleData, ptr %58, i32 0, i32 3
  %60 = load ptr, ptr %59, align 8
  call void @HeapTupleHeaderSetXminFrozen(ptr noundef %60)
  br label %61

61:                                               ; preds = %57, %25
  %62 = load ptr, ptr %8, align 8
  %63 = getelementptr inbounds nuw %struct.HeapTupleData, ptr %62, i32 0, i32 3
  %64 = load ptr, ptr %63, align 8
  %65 = load i32, ptr %10, align 4
  call void @HeapTupleHeaderSetCmin(ptr noundef %64, i32 noundef %65)
  %66 = load ptr, ptr %8, align 8
  %67 = getelementptr inbounds nuw %struct.HeapTupleData, ptr %66, i32 0, i32 3
  %68 = load ptr, ptr %67, align 8
  call void @HeapTupleHeaderSetXmax(ptr noundef %68, i32 noundef 0)
  %69 = load ptr, ptr %7, align 8
  %70 = getelementptr inbounds nuw %struct.RelationData, ptr %69, i32 0, i32 15
  %71 = load i32, ptr %70, align 8
  %72 = load ptr, ptr %8, align 8
  %73 = getelementptr inbounds nuw %struct.HeapTupleData, ptr %72, i32 0, i32 2
  store i32 %71, ptr %73, align 4
  %74 = load ptr, ptr %7, align 8
  %75 = getelementptr inbounds nuw %struct.RelationData, ptr %74, i32 0, i32 13
  %76 = load ptr, ptr %75, align 8
  %77 = getelementptr inbounds nuw %struct.FormData_pg_class, ptr %76, i32 0, i32 16
  %78 = load i8, ptr %77, align 1
  %79 = sext i8 %78 to i32
  %80 = icmp ne i32 %79, 114
  br i1 %80, label %81, label %91

81:                                               ; preds = %61
  %82 = load ptr, ptr %7, align 8
  %83 = getelementptr inbounds nuw %struct.RelationData, ptr %82, i32 0, i32 13
  %84 = load ptr, ptr %83, align 8
  %85 = getelementptr inbounds nuw %struct.FormData_pg_class, ptr %84, i32 0, i32 16
  %86 = load i8, ptr %85, align 1
  %87 = sext i8 %86 to i32
  %88 = icmp ne i32 %87, 109
  br i1 %88, label %89, label %91

89:                                               ; preds = %81
  %90 = load ptr, ptr %8, align 8
  store ptr %90, ptr %6, align 8
  br label %107

91:                                               ; preds = %81, %61
  %92 = load ptr, ptr %8, align 8
  %93 = call zeroext i1 @HeapTupleHasExternal(ptr noundef %92)
  br i1 %93, label %100, label %94

94:                                               ; preds = %91
  %95 = load ptr, ptr %8, align 8
  %96 = getelementptr inbounds nuw %struct.HeapTupleData, ptr %95, i32 0, i32 0
  %97 = load i32, ptr %96, align 8
  %98 = zext i32 %97 to i64
  %99 = icmp ugt i64 %98, 2032
  br i1 %99, label %100, label %105

100:                                              ; preds = %94, %91
  %101 = load ptr, ptr %7, align 8
  %102 = load ptr, ptr %8, align 8
  %103 = load i32, ptr %11, align 4
  %104 = call ptr @heap_toast_insert_or_update(ptr noundef %101, ptr noundef %102, ptr noundef null, i32 noundef %103)
  store ptr %104, ptr %6, align 8
  br label %107

105:                                              ; preds = %94
  %106 = load ptr, ptr %8, align 8
  store ptr %106, ptr %6, align 8
  br label %107

107:                                              ; preds = %105, %100, %89
  %108 = load ptr, ptr %6, align 8
  ret ptr %108
}