; Function Attrs: nounwind uwtable
define internal fastcc ptr @heap_prepare_insert(ptr noundef %0, ptr noundef %1, i32 noundef %2, i32 noundef %3, i32 noundef %4) unnamed_addr #2 {
  %6 = load i32, ptr @ParallelWorkerNumber, align 4
  %7 = icmp sgt i32 %6, -1
  br i1 %7, label %8, label %12

8:                                                ; preds = %5
  %9 = tail call zeroext i1 @errstart_cold(i32 noundef 21, ptr noundef null) #14
  tail call void @llvm.assume(i1 %9)
  %10 = tail call i32 @errcode(i32 noundef 322) #13
  %11 = tail call i32 (ptr, ...) @errmsg(ptr noundef nonnull @.str.29) #13
  tail call void @errfinish(ptr noundef nonnull @.str.1, i32 noundef 2209, ptr noundef nonnull @__func__.heap_prepare_insert) #13
  unreachable

12:                                               ; preds = %5
  %13 = getelementptr inbounds nuw i8, ptr %1, i64 16
  %14 = load ptr, ptr %13, align 8
  %15 = getelementptr inbounds nuw i8, ptr %14, i64 20
  %16 = load i16, ptr %15, align 4
  %17 = and i16 %16, 15
  store i16 %17, ptr %15, align 4
  %18 = load ptr, ptr %13, align 8
  %19 = getelementptr inbounds nuw i8, ptr %18, i64 18
  %20 = load i16, ptr %19, align 2
  %21 = and i16 %20, 8191
  store i16 %21, ptr %19, align 2
  %22 = load ptr, ptr %13, align 8
  %23 = getelementptr inbounds nuw i8, ptr %22, i64 20
  %24 = load i16, ptr %23, align 4
  %25 = or i16 %24, 2048
  store i16 %25, ptr %23, align 4
  %26 = load ptr, ptr %13, align 8
  store i32 %2, ptr %26, align 4
  %27 = and i32 %4, 4
  %.not = icmp eq i32 %27, 0
  br i1 %.not, label %33, label %28

28:                                               ; preds = %12
  %29 = load ptr, ptr %13, align 8
  %30 = getelementptr inbounds nuw i8, ptr %29, i64 20
  %31 = load i16, ptr %30, align 4
  %32 = or i16 %31, 768
  store i16 %32, ptr %30, align 4
  br label %33

33:                                               ; preds = %28, %12
  %34 = load ptr, ptr %13, align 8
  %35 = getelementptr inbounds nuw i8, ptr %34, i64 8
  store i32 %3, ptr %35, align 4
  %36 = getelementptr inbounds nuw i8, ptr %34, i64 20
  %37 = load i16, ptr %36, align 4
  %38 = and i16 %37, -33
  store i16 %38, ptr %36, align 4
  %39 = load ptr, ptr %13, align 8
  %40 = getelementptr inbounds nuw i8, ptr %39, i64 4
  store i32 0, ptr %40, align 4
  %41 = getelementptr inbounds nuw i8, ptr %0, i64 72
  %42 = load i32, ptr %41, align 8
  %43 = getelementptr inbounds nuw i8, ptr %1, i64 12
  store i32 %42, ptr %43, align 4
  %44 = getelementptr inbounds nuw i8, ptr %0, i64 56
  %45 = load ptr, ptr %44, align 8
  %46 = getelementptr inbounds nuw i8, ptr %45, i64 115
  %47 = load i8, ptr %46, align 1
  switch i8 %47, label %56 [
    i8 114, label %48
    i8 109, label %48
  ]

48:                                               ; preds = %33, %33
  %.val = load ptr, ptr %13, align 8
  %49 = getelementptr i8, ptr %.val, i64 20
  %.val.val = load i16, ptr %49, align 4
  %50 = and i16 %.val.val, 4
  %.not24 = icmp eq i16 %50, 0
  br i1 %.not24, label %51, label %54

51:                                               ; preds = %48
  %52 = load i32, ptr %1, align 8
  %53 = icmp ugt i32 %52, 2032
  br i1 %53, label %54, label %56

54:                                               ; preds = %51, %48
  %55 = tail call ptr @heap_toast_insert_or_update(ptr noundef nonnull %0, ptr noundef nonnull %1, ptr noundef null, i32 noundef %4) #13
  br label %56

56:                                               ; preds = %51, %33, %54
  %.0 = phi ptr [ %55, %54 ], [ %1, %33 ], [ %1, %51 ]
  ret ptr %.0
}